target datalayout = "e-m:e-p270:32:32-p271:32:32-p272:64:64-i64:64-i128:128-f80:128-n8:16:32:64-S128"
target triple = "x86_64-pc-linux-gnu"

%struct.evp_pkey_ctx_st = type { i32, ptr, ptr, ptr, ptr, %union.anon, %struct.anon.4, ptr, ptr, ptr, i32, i32, ptr, ptr, ptr, ptr, ptr, i8, ptr }
%union.anon = type { %struct.anon.0 }
%struct.anon.0 = type { ptr, ptr }
%struct.anon.4 = type { ptr, ptr, i64, i8 }
%struct.anon.1 = type { ptr, ptr }
%struct.anon.2 = type { ptr, ptr }
%struct.anon.3 = type { ptr, ptr }

; Function Attrs: nounwind uwtable
define ptr @EVP_PKEY_CTX_get0_provider(ptr noundef %0) #0 {
  %2 = alloca ptr, align 8
  %3 = alloca ptr, align 8
  store ptr %0, ptr %3, align 8, !tbaa !18
  %4 = load ptr, ptr %3, align 8, !tbaa !18
  %5 = getelementptr inbounds nuw %struct.evp_pkey_ctx_st, ptr %4, i32 0, i32 0
  %6 = load i32, ptr %5, align 8, !tbaa !20
  %7 = and i32 %6, 49648
  %8 = icmp ne i32 %7, 0
  br i1 %8, label %9, label %22

9:                                                ; preds = %1
  %10 = load ptr, ptr %3, align 8, !tbaa !18
  %11 = getelementptr inbounds nuw %struct.evp_pkey_ctx_st, ptr %10, i32 0, i32 5
  %12 = getelementptr inbounds nuw %struct.anon.1, ptr %11, i32 0, i32 0
  %13 = load ptr, ptr %12, align 8, !tbaa !31
  %14 = icmp ne ptr %13, null
  br i1 %14, label %15, label %21

15:                                               ; preds = %9
  %16 = load ptr, ptr %3, align 8, !tbaa !18
  %17 = getelementptr inbounds nuw %struct.evp_pkey_ctx_st, ptr %16, i32 0, i32 5
  %18 = getelementptr inbounds nuw %struct.anon.1, ptr %17, i32 0, i32 0
  %19 = load ptr, ptr %18, align 8, !tbaa !31
  %20 = call ptr @EVP_SIGNATURE_get0_provider(ptr noundef %19)
  store ptr %20, ptr %2, align 8
  br label %101

21:                                               ; preds = %9
  br label %100

22:                                               ; preds = %1
  %23 = load ptr, ptr %3, align 8, !tbaa !18
  %24 = getelementptr inbounds nuw %struct.evp_pkey_ctx_st, ptr %23, i32 0, i32 0
  %25 = load i32, ptr %24, align 8, !tbaa !20
  %26 = and i32 %25, 2048
  %27 = icmp ne i32 %26, 0
  br i1 %27, label %28, label %41

28:                                               ; preds = %22
  %29 = load ptr, ptr %3, align 8, !tbaa !18
  %30 = getelementptr inbounds nuw %struct.evp_pkey_ctx_st, ptr %29, i32 0, i32 5
  %31 = getelementptr inbounds nuw %struct.anon.0, ptr %30, i32 0, i32 0
  %32 = load ptr, ptr %31, align 8, !tbaa !31
  %33 = icmp ne ptr %32, null
  br i1 %33, label %34, label %40

34:                                               ; preds = %28
  %35 = load ptr, ptr %3, align 8, !tbaa !18
  %36 = getelementptr inbounds nuw %struct.evp_pkey_ctx_st, ptr %35, i32 0, i32 5
  %37 = getelementptr inbounds nuw %struct.anon.0, ptr %36, i32 0, i32 0
  %38 = load ptr, ptr %37, align 8, !tbaa !31
  %39 = call ptr @EVP_KEYEXCH_get0_provider(ptr noundef %38)
  store ptr %39, ptr %2, align 8
  br label %101

40:                                               ; preds = %28
  br label %99

41:                                               ; preds = %22
  %42 = load ptr, ptr %3, align 8, !tbaa !18
  %43 = getelementptr inbounds nuw %struct.evp_pkey_ctx_st, ptr %42, i32 0, i32 0
  %44 = load i32, ptr %43, align 8, !tbaa !20
  %45 = and i32 %44, 12288
  %46 = icmp ne i32 %45, 0
  br i1 %46, label %47, label %60

47:                                               ; preds = %41
  %48 = load ptr, ptr %3, align 8, !tbaa !18
  %49 = getelementptr inbounds nuw %struct.evp_pkey_ctx_st, ptr %48, i32 0, i32 5
  %50 = getelementptr inbounds nuw %struct.anon.3, ptr %49, i32 0, i32 0
  %51 = load ptr, ptr %50, align 8, !tbaa !31
  %52 = icmp ne ptr %51, null
  br i1 %52, label %53, label %59

53:                                               ; preds = %47
  %54 = load ptr, ptr %3, align 8, !tbaa !18
  %55 = getelementptr inbounds nuw %struct.evp_pkey_ctx_st, ptr %54, i32 0, i32 5
  %56 = getelementptr inbounds nuw %struct.anon.3, ptr %55, i32 0, i32 0
  %57 = load ptr, ptr %56, align 8, !tbaa !31
  %58 = call ptr @EVP_KEM_get0_provider(ptr noundef %57)
  store ptr %58, ptr %2, align 8
  br label %101

59:                                               ; preds = %47
  br label %98

60:                                               ; preds = %41
  %61 = load ptr, ptr %3, align 8, !tbaa !18
  %62 = getelementptr inbounds nuw %struct.evp_pkey_ctx_st, ptr %61, i32 0, i32 0
  %63 = load i32, ptr %62, align 8, !tbaa !20
  %64 = and i32 %63, 1536
  %65 = icmp ne i32 %64, 0
  br i1 %65, label %66, label %79

66:                                               ; preds = %60
  %67 = load ptr, ptr %3, align 8, !tbaa !18
  %68 = getelementptr inbounds nuw %struct.evp_pkey_ctx_st, ptr %67, i32 0, i32 5
  %69 = getelementptr inbounds nuw %struct.anon.2, ptr %68, i32 0, i32 0
  %70 = load ptr, ptr %69, align 8, !tbaa !31
  %71 = icmp ne ptr %70, null
  br i1 %71, label %72, label %78

72:                                               ; preds = %66
  %73 = load ptr, ptr %3, align 8, !tbaa !18
  %74 = getelementptr inbounds nuw %struct.evp_pkey_ctx_st, ptr %73, i32 0, i32 5
  %75 = getelementptr inbounds nuw %struct.anon.2, ptr %74, i32 0, i32 0
  %76 = load ptr, ptr %75, align 8, !tbaa !31
  %77 = call ptr @EVP_ASYM_CIPHER_get0_provider(ptr noundef %76)
  store ptr %77, ptr %2, align 8
  br label %101

78:                                               ; preds = %66
  br label %97

79:                                               ; preds = %60
  %80 = load ptr, ptr %3, align 8, !tbaa !18
  %81 = getelementptr inbounds nuw %struct.evp_pkey_ctx_st, ptr %80, i32 0, i32 0
  %82 = load i32, ptr %81, align 8, !tbaa !20
  %83 = and i32 %82, 6
  %84 = icmp ne i32 %83, 0
  br i1 %84, label %85, label %96

85:                                               ; preds = %79
  %86 = load ptr, ptr %3, align 8, !tbaa !18
  %87 = getelementptr inbounds nuw %struct.evp_pkey_ctx_st, ptr %86, i32 0, i32 4
  %88 = load ptr, ptr %87, align 8, !tbaa !52
  %89 = icmp ne ptr %88, null
  br i1 %89, label %90, label %95

90:                                               ; preds = %85
  %91 = load ptr, ptr %3, align 8, !tbaa !18
  %92 = getelementptr inbounds nuw %struct.evp_pkey_ctx_st, ptr %91, i32 0, i32 4
  %93 = load ptr, ptr %92, align 8, !tbaa !52
  %94 = call ptr @EVP_KEYMGMT_get0_provider(ptr noundef %93)
  store ptr %94, ptr %2, align 8
  br label %101

95:                                               ; preds = %85
  br label %96

96:                                               ; preds = %95, %79
  br label %97

97:                                               ; preds = %96, %78
  br label %98

98:                                               ; preds = %97, %59
  br label %99

99:                                               ; preds = %98, %40
  br label %100

100:                                              ; preds = %99, %21
  store ptr null, ptr %2, align 8
  br label %101

101:                                              ; preds = %100, %90, %72, %53, %34, %15
  %102 = load ptr, ptr %2, align 8
  ret ptr %102
}