; Function Attrs: nounwind uwtable
define ptr @EVP_PKEY_CTX_get0_provider(ptr noundef readonly captures(none) %0) local_unnamed_addr #0 {
  %2 = load i32, ptr %0, align 8, !tbaa !15
  %3 = and i32 %2, 49648
  %.not = icmp eq i32 %3, 0
  br i1 %.not, label %9, label %4

4:                                                ; preds = %1
  %5 = getelementptr inbounds nuw i8, ptr %0, i64 40
  %6 = load ptr, ptr %5, align 8, !tbaa !26
  %.not29 = icmp eq ptr %6, null
  br i1 %.not29, label %37, label %7

7:                                                ; preds = %4
  %8 = tail call ptr @EVP_SIGNATURE_get0_provider(ptr noundef nonnull %6) #10
  br label %37

9:                                                ; preds = %1
  %10 = and i32 %2, 2048
  %.not21 = icmp eq i32 %10, 0
  br i1 %.not21, label %16, label %11

11:                                               ; preds = %9
  %12 = getelementptr inbounds nuw i8, ptr %0, i64 40
  %13 = load ptr, ptr %12, align 8, !tbaa !26
  %.not28 = icmp eq ptr %13, null
  br i1 %.not28, label %37, label %14

14:                                               ; preds = %11
  %15 = tail call ptr @EVP_KEYEXCH_get0_provider(ptr noundef nonnull %13) #10
  br label %37

16:                                               ; preds = %9
  %17 = and i32 %2, 12288
  %.not22 = icmp eq i32 %17, 0
  br i1 %.not22, label %23, label %18

18:                                               ; preds = %16
  %19 = getelementptr inbounds nuw i8, ptr %0, i64 40
  %20 = load ptr, ptr %19, align 8, !tbaa !26
  %.not27 = icmp eq ptr %20, null
  br i1 %.not27, label %37, label %21

21:                                               ; preds = %18
  %22 = tail call ptr @EVP_KEM_get0_provider(ptr noundef nonnull %20) #10
  br label %37

23:                                               ; preds = %16
  %24 = and i32 %2, 1536
  %.not23 = icmp eq i32 %24, 0
  br i1 %.not23, label %30, label %25

25:                                               ; preds = %23
  %26 = getelementptr inbounds nuw i8, ptr %0, i64 40
  %27 = load ptr, ptr %26, align 8, !tbaa !26
  %.not26 = icmp eq ptr %27, null
  br i1 %.not26, label %37, label %28

28:                                               ; preds = %25
  %29 = tail call ptr @EVP_ASYM_CIPHER_get0_provider(ptr noundef nonnull %27) #10
  br label %37

30:                                               ; preds = %23
  %31 = and i32 %2, 6
  %.not24 = icmp eq i32 %31, 0
  br i1 %.not24, label %37, label %32

32:                                               ; preds = %30
  %33 = getelementptr inbounds nuw i8, ptr %0, i64 32
  %34 = load ptr, ptr %33, align 8, !tbaa !43
  %.not25 = icmp eq ptr %34, null
  br i1 %.not25, label %37, label %35

35:                                               ; preds = %32
  %36 = tail call ptr @EVP_KEYMGMT_get0_provider(ptr noundef nonnull %34) #10
  br label %37

37:                                               ; preds = %4, %18, %30, %32, %25, %11, %35, %28, %21, %14, %7
  %.0 = phi ptr [ %8, %7 ], [ %15, %14 ], [ %22, %21 ], [ %29, %28 ], [ %36, %35 ], [ null, %11 ], [ null, %25 ], [ null, %32 ], [ null, %30 ], [ null, %18 ], [ null, %4 ]
  ret ptr %.0
}